; Function Attrs: mustprogress uwtable
define dso_local void @_ZN4Luau7CodeGen3A6418AssemblyBuilderA646ins_4sENS1_11RegisterA64ES3_h(ptr noundef nonnull align 8 dereferenceable(176) %0, i8 %1, i8 %2, i8 noundef zeroext %3) local_unnamed_addr #0 align 2 {
  %5 = getelementptr inbounds nuw i8, ptr %0, i64 80
  %6 = load i8, ptr %5, align 8, !tbaa !14, !range !46, !noundef !47
  %7 = trunc nuw i8 %6 to i1
  %8 = lshr i8 %1, 3
  %9 = zext nneg i8 %8 to i32
  br i1 %7, label %10, label %._crit_edge

._crit_edge:                                      ; preds = %4
  %.pre8 = lshr i8 %2, 3
  %.pre10 = zext nneg i8 %.pre8 to i32
  %.pre12 = zext i8 %3 to i32
  br label %14

10:                                               ; preds = %4
  %11 = zext i8 %3 to i32
  %12 = lshr i8 %2, 3
  %13 = zext nneg i8 %12 to i32
  tail call void (ptr, ptr, ...) @_ZN4Luau7CodeGen3A6418AssemblyBuilderA649logAppendEPKcz(ptr noundef nonnull align 8 dereferenceable(176) %0, ptr noundef nonnull @.str.60, ptr noundef nonnull @.str.61, i32 noundef %9, i32 noundef %11, i32 noundef %13)
  br label %14

14:                                               ; preds = %._crit_edge, %10
  %.pre-phi13 = phi i32 [ %.pre12, %._crit_edge ], [ %11, %10 ]
  %.pre-phi11 = phi i32 [ %.pre10, %._crit_edge ], [ %13, %10 ]
  %15 = shl nuw nsw i32 %.pre-phi11, 5
  %16 = shl nuw nsw i32 %.pre-phi13, 19
  %17 = or disjoint i32 %15, %16
  %18 = or disjoint i32 %17, %9
  %19 = or i32 %18, 1308892160
  %20 = getelementptr inbounds nuw i8, ptr %0, i64 160
  %21 = load ptr, ptr %20, align 8, !tbaa !39
  %22 = getelementptr inbounds nuw i8, ptr %21, i64 4
  store ptr %22, ptr %20, align 8, !tbaa !39
  store i32 %19, ptr %21, align 4, !tbaa !48
  %23 = getelementptr inbounds nuw i8, ptr %0, i64 168
  %24 = load ptr, ptr %23, align 8, !tbaa !40
  %25 = icmp eq ptr %24, %22
  br i1 %25, label %26, label %_ZN4Luau7CodeGen3A6418AssemblyBuilderA646commitEv.exit

26:                                               ; preds = %14
  tail call void @_ZN4Luau7CodeGen3A6418AssemblyBuilderA646extendEv(ptr noundef nonnull align 8 dereferenceable(176) %0)
  br label %_ZN4Luau7CodeGen3A6418AssemblyBuilderA646commitEv.exit

_ZN4Luau7CodeGen3A6418AssemblyBuilderA646commitEv.exit: ; preds = %14, %26
  ret void
}